; Function Attrs: mustprogress nofree norecurse nosync nounwind null_pointer_is_valid sspstrong willreturn memory(none) uwtable
define internal range(i32 -8, 1) i32 @eyesdn_dump_can_write_encap(i32 noundef %0) #3 {
  switch i32 %0, label %2 [
    i32 17, label %3
    i32 110, label %3
    i32 117, label %3
    i32 14, label %3
    i32 12, label %3
    i32 75, label %3
    i32 143, label %3
    i32 -1, label %3
  ]

2:                                                ; preds = %1
  br label %3

3:                                                ; preds = %1, %1, %1, %1, %1, %1, %1, %1, %2
  %.0 = phi i32 [ -8, %2 ], [ 0, %1 ], [ 0, %1 ], [ 0, %1 ], [ 0, %1 ], [ 0, %1 ], [ 0, %1 ], [ 0, %1 ], [ 0, %1 ]
  ret i32 %.0
}